target datalayout = "e-m:e-p270:32:32-p271:32:32-p272:64:64-i64:64-i128:128-f80:128-n8:16:32:64-S128"
target triple = "x86_64-pc-linux-gnu"

%struct.BTVacState = type { ptr, ptr, ptr, ptr, i16, ptr, i32, i32, ptr, i32 }

@work_mem = external global i32, align 4

; Function Attrs: nounwind uwtable
define dso_local void @_bt_pendingfsm_init(ptr noundef %0, ptr noundef %1, i1 noundef zeroext %2) #0 {
  %4 = alloca ptr, align 8
  %5 = alloca ptr, align 8
  %6 = alloca i8, align 1
  %7 = alloca i64, align 8
  %8 = alloca i32, align 4
  store ptr %0, ptr %4, align 8
  store ptr %1, ptr %5, align 8
  %9 = zext i1 %2 to i8
  store i8 %9, ptr %6, align 1
  call void @llvm.lifetime.start.p0(i64 8, ptr %7) #8
  %10 = load i8, ptr %6, align 1, !range !4, !noundef !5
  %11 = trunc i8 %10 to i1
  br i1 %11, label %12, label %13

12:                                               ; preds = %3
  store i32 1, ptr %8, align 4
  br label %63

13:                                               ; preds = %3
  %14 = load ptr, ptr %5, align 8
  %15 = getelementptr inbounds nuw %struct.BTVacState, ptr %14, i32 0, i32 6
  store i32 256, ptr %15, align 8
  %16 = load i32, ptr @work_mem, align 4
  %17 = sext i32 %16 to i64
  %18 = mul i64 %17, 1024
  %19 = udiv i64 %18, 16
  store i64 %19, ptr %7, align 8
  %20 = load i64, ptr %7, align 8
  %21 = icmp ult i64 %20, 67108863
  br i1 %21, label %22, label %24

22:                                               ; preds = %13
  %23 = load i64, ptr %7, align 8
  br label %25

24:                                               ; preds = %13
  br label %25

25:                                               ; preds = %24, %22
  %26 = phi i64 [ %23, %22 ], [ 67108863, %24 ]
  store i64 %26, ptr %7, align 8
  %27 = load i64, ptr %7, align 8
  %28 = icmp ult i64 %27, 2147483647
  br i1 %28, label %29, label %31

29:                                               ; preds = %25
  %30 = load i64, ptr %7, align 8
  br label %32

31:                                               ; preds = %25
  br label %32

32:                                               ; preds = %31, %29
  %33 = phi i64 [ %30, %29 ], [ 2147483647, %31 ]
  store i64 %33, ptr %7, align 8
  %34 = load i64, ptr %7, align 8
  %35 = load ptr, ptr %5, align 8
  %36 = getelementptr inbounds nuw %struct.BTVacState, ptr %35, i32 0, i32 6
  %37 = load i32, ptr %36, align 8
  %38 = sext i32 %37 to i64
  %39 = icmp ugt i64 %34, %38
  br i1 %39, label %40, label %42

40:                                               ; preds = %32
  %41 = load i64, ptr %7, align 8
  br label %47

42:                                               ; preds = %32
  %43 = load ptr, ptr %5, align 8
  %44 = getelementptr inbounds nuw %struct.BTVacState, ptr %43, i32 0, i32 6
  %45 = load i32, ptr %44, align 8
  %46 = sext i32 %45 to i64
  br label %47

47:                                               ; preds = %42, %40
  %48 = phi i64 [ %41, %40 ], [ %46, %42 ]
  store i64 %48, ptr %7, align 8
  %49 = load i64, ptr %7, align 8
  %50 = trunc i64 %49 to i32
  %51 = load ptr, ptr %5, align 8
  %52 = getelementptr inbounds nuw %struct.BTVacState, ptr %51, i32 0, i32 7
  store i32 %50, ptr %52, align 4
  %53 = load ptr, ptr %5, align 8
  %54 = getelementptr inbounds nuw %struct.BTVacState, ptr %53, i32 0, i32 6
  %55 = load i32, ptr %54, align 8
  %56 = sext i32 %55 to i64
  %57 = mul i64 16, %56
  %58 = call ptr @palloc(i64 noundef %57)
  %59 = load ptr, ptr %5, align 8
  %60 = getelementptr inbounds nuw %struct.BTVacState, ptr %59, i32 0, i32 8
  store ptr %58, ptr %60, align 8
  %61 = load ptr, ptr %5, align 8
  %62 = getelementptr inbounds nuw %struct.BTVacState, ptr %61, i32 0, i32 9
  store i32 0, ptr %62, align 8
  store i32 0, ptr %8, align 4
  br label %63

63:                                               ; preds = %47, %12
  call void @llvm.lifetime.end.p0(i64 8, ptr %7) #8
  %64 = load i32, ptr %8, align 4
  switch i32 %64, label %66 [
    i32 0, label %65
    i32 1, label %65
  ]

65:                                               ; preds = %63, %63
  ret void

66:                                               ; preds = %63
  unreachable
}