; Function Attrs: nounwind uwtable
define dso_local void @_bt_pendingfsm_init(ptr noundef readnone captures(none) %0, ptr noundef writeonly captures(none) %1, i1 noundef zeroext %2) local_unnamed_addr #0 {
  br i1 %2, label %17, label %4

4:                                                ; preds = %3
  %5 = getelementptr inbounds nuw i8, ptr %1, i64 48
  store i32 256, ptr %5, align 8
  %6 = load i32, ptr @work_mem, align 4
  %7 = sext i32 %6 to i64
  %8 = shl nsw i64 %7, 6
  %9 = and i64 %8, 1152921504606846912
  %10 = tail call i64 @llvm.umin.i64(i64 %9, i64 67108863)
  %11 = tail call i64 @llvm.umax.i64(i64 %10, i64 256)
  %12 = trunc nuw nsw i64 %11 to i32
  %13 = getelementptr inbounds nuw i8, ptr %1, i64 52
  store i32 %12, ptr %13, align 4
  %14 = tail call ptr @palloc(i64 noundef 4096) #10
  %15 = getelementptr inbounds nuw i8, ptr %1, i64 56
  store ptr %14, ptr %15, align 8
  %16 = getelementptr inbounds nuw i8, ptr %1, i64 64
  store i32 0, ptr %16, align 8
  br label %17

17:                                               ; preds = %3, %4
  ret void
}